; Function Attrs: mustprogress nofree norecurse nosync nounwind willreturn memory(argmem: read) uwtable
define range(i32 0, 256) i32 @WasmEdge_ImportTypeGetExternalType(ptr noundef readonly %0) local_unnamed_addr #4 {
  %.not = icmp eq ptr %0, null
  br i1 %.not, label %5, label %2

2:                                                ; preds = %1
  %3 = load i8, ptr %0, align 8
  %4 = zext i8 %3 to i32
  br label %5

5:                                                ; preds = %1, %2
  %.0 = phi i32 [ %4, %2 ], [ 0, %1 ]
  ret i32 %.0
}